; Function Attrs: mustprogress nofree norecurse nosync nounwind willreturn memory(readwrite, inaccessiblemem: none) uwtable
define internal void @_ZN5faiss12_GLOBAL__N_124search_knn_hamming_countINS_22HammingComputerDefaultELb0EEEvPKNS_14IndexBinaryIVFEmPKhPKliPiPlPKNS_19SearchParametersIVFE.omp_outlined.omp.reduction.reduction_func(ptr nocapture noundef readonly %0, ptr nocapture noundef readonly %1) #22 {
  %3 = load ptr, ptr %1, align 8
  %4 = load ptr, ptr %0, align 8
  %5 = getelementptr inbounds i8, ptr %1, i64 8
  %6 = load ptr, ptr %5, align 8
  %7 = getelementptr inbounds i8, ptr %0, i64 8
  %8 = load ptr, ptr %7, align 8
  %9 = load i64, ptr %4, align 8
  %10 = load i64, ptr %3, align 8
  %11 = add i64 %10, %9
  store i64 %11, ptr %4, align 8
  %12 = load i64, ptr %8, align 8
  %13 = load i64, ptr %6, align 8
  %14 = add i64 %13, %12
  store i64 %14, ptr %8, align 8
  ret void
}